target datalayout = "e-m:e-p270:32:32-p271:32:32-p272:64:64-i64:64-i128:128-f80:128-n8:16:32:64-S128"
target triple = "x86_64-pc-linux-gnu"

%struct.lv_ll_t = type { i32, ptr, ptr }
%struct._lv_spangroup_t = type { %struct._lv_obj_t, i32, i32, i32, i32, %struct.lv_ll_t, i8 }
%struct._lv_obj_t = type { ptr, ptr, ptr, ptr, ptr, %struct.lv_area_t, i32, i16, i16 }
%struct.lv_area_t = type { i32, i32, i32, i32 }
%union.lv_style_value_t = type { ptr }
%struct._lv_span_coords_t = type { %struct.lv_area_t, %struct.lv_area_t, %struct.lv_area_t }

; Function Attrs: inlinehint nounwind uwtable
define internal i32 @lv_obj_get_style_pad_right(ptr noundef %0, i32 noundef %1) #3 {
  %3 = alloca ptr, align 8
  %4 = alloca i32, align 4
  %5 = alloca %union.lv_style_value_t, align 8
  store ptr %0, ptr %3, align 8, !tbaa !3
  store i32 %1, ptr %4, align 4, !tbaa !23
  call void @llvm.lifetime.start.p0(i64 8, ptr %5) #6
  %6 = load ptr, ptr %3, align 8, !tbaa !3
  %7 = load i32, ptr %4, align 4, !tbaa !23
  %8 = call ptr @lv_obj_get_style_prop(ptr noundef %6, i32 noundef %7, i8 noundef zeroext 19)
  %9 = getelementptr inbounds nuw %union.lv_style_value_t, ptr %5, i32 0, i32 0
  store ptr %8, ptr %9, align 8
  %10 = load i32, ptr %5, align 8, !tbaa !45
  call void @llvm.lifetime.end.p0(i64 8, ptr %5) #6
  ret i32 %10
}

; Function Attrs: inlinehint nounwind uwtable
define internal i32 @lv_obj_get_style_pad_top(ptr noundef %0, i32 noundef %1) #3 {
  %3 = alloca ptr, align 8
  %4 = alloca i32, align 4
  %5 = alloca %union.lv_style_value_t, align 8
  store ptr %0, ptr %3, align 8, !tbaa !3
  store i32 %1, ptr %4, align 4, !tbaa !23
  call void @llvm.lifetime.start.p0(i64 8, ptr %5) #6
  %6 = load ptr, ptr %3, align 8, !tbaa !3
  %7 = load i32, ptr %4, align 4, !tbaa !23
  %8 = call ptr @lv_obj_get_style_prop(ptr noundef %6, i32 noundef %7, i8 noundef zeroext 16)
  %9 = getelementptr inbounds nuw %union.lv_style_value_t, ptr %5, i32 0, i32 0
  store ptr %8, ptr %9, align 8
  %10 = load i32, ptr %5, align 8, !tbaa !45
  call void @llvm.lifetime.end.p0(i64 8, ptr %5) #6
  ret i32 %10
}

; Function Attrs: inlinehint nounwind uwtable
define internal i32 @lv_obj_get_style_pad_left(ptr noundef %0, i32 noundef %1) #3 {
  %3 = alloca ptr, align 8
  %4 = alloca i32, align 4
  %5 = alloca %union.lv_style_value_t, align 8
  store ptr %0, ptr %3, align 8, !tbaa !3
  store i32 %1, ptr %4, align 4, !tbaa !23
  call void @llvm.lifetime.start.p0(i64 8, ptr %5) #6
  %6 = load ptr, ptr %3, align 8, !tbaa !3
  %7 = load i32, ptr %4, align 4, !tbaa !23
  %8 = call ptr @lv_obj_get_style_prop(ptr noundef %6, i32 noundef %7, i8 noundef zeroext 18)
  %9 = getelementptr inbounds nuw %union.lv_style_value_t, ptr %5, i32 0, i32 0
  store ptr %8, ptr %9, align 8
  %10 = load i32, ptr %5, align 8, !tbaa !45
  call void @llvm.lifetime.end.p0(i64 8, ptr %5) #6
  ret i32 %10
}

; Function Attrs: inlinehint nounwind uwtable
define internal i32 @lv_obj_get_style_border_width(ptr noundef %0, i32 noundef %1) #3 {
  %3 = alloca ptr, align 8
  %4 = alloca i32, align 4
  %5 = alloca %union.lv_style_value_t, align 8
  store ptr %0, ptr %3, align 8, !tbaa !3
  store i32 %1, ptr %4, align 4, !tbaa !23
  call void @llvm.lifetime.start.p0(i64 8, ptr %5) #6
  %6 = load ptr, ptr %3, align 8, !tbaa !3
  %7 = load i32, ptr %4, align 4, !tbaa !23
  %8 = call ptr @lv_obj_get_style_prop(ptr noundef %6, i32 noundef %7, i8 noundef zeroext 48)
  %9 = getelementptr inbounds nuw %union.lv_style_value_t, ptr %5, i32 0, i32 0
  store ptr %8, ptr %9, align 8
  %10 = load i32, ptr %5, align 8, !tbaa !45
  call void @llvm.lifetime.end.p0(i64 8, ptr %5) #6
  ret i32 %10
}

; Function Attrs: nounwind uwtable
define i32 @lv_spangroup_get_indent(ptr noundef %0) #0 {
  %2 = alloca ptr, align 8
  %3 = alloca ptr, align 8
  store ptr %0, ptr %2, align 8, !tbaa !3
  br label %4

4:                                                ; preds = %1
  br label %5

5:                                                ; preds = %4
  call void @llvm.lifetime.start.p0(i64 8, ptr %3) #6
  %6 = load ptr, ptr %2, align 8, !tbaa !3
  store ptr %6, ptr %3, align 8, !tbaa !3
  %7 = load ptr, ptr %3, align 8, !tbaa !3
  %8 = getelementptr inbounds nuw %struct._lv_spangroup_t, ptr %7, i32 0, i32 2
  %9 = load i32, ptr %8, align 4, !tbaa !7
  call void @llvm.lifetime.end.p0(i64 8, ptr %3) #6
  ret i32 %9
}

; Function Attrs: nounwind uwtable
define void @lv_spangroup_get_span_coords(ptr dead_on_unwind noalias writable sret(%struct._lv_span_coords_t) align 4 %0, ptr noundef %1, ptr noundef %2) #0 {
  %4 = alloca ptr, align 8
  %5 = alloca ptr, align 8
  %6 = alloca ptr, align 8
  %7 = alloca ptr, align 8
  %8 = alloca i32, align 4
  %9 = alloca i32, align 4
  %10 = alloca i32, align 4
  %11 = alloca ptr, align 8
  %12 = alloca ptr, align 8
  %13 = alloca i32, align 4
  %14 = alloca %struct.lv_area_t, align 4
  store ptr %1, ptr %4, align 8, !tbaa !3
  store ptr %2, ptr %5, align 8, !tbaa !3
  call void @llvm.lifetime.start.p0(i64 8, ptr %6) #6
  %15 = load ptr, ptr %4, align 8, !tbaa !3
  store ptr %15, ptr %6, align 8, !tbaa !3
  call void @llvm.lifetime.start.p0(i64 8, ptr %7) #6
  %16 = load ptr, ptr %6, align 8, !tbaa !3
  %17 = getelementptr inbounds nuw %struct._lv_spangroup_t, ptr %16, i32 0, i32 5
  store ptr %17, ptr %7, align 8, !tbaa !3
  call void @llvm.lifetime.start.p0(i64 4, ptr %8) #6
  %18 = load ptr, ptr %4, align 8, !tbaa !3
  %19 = call i32 @lv_obj_get_content_width(ptr noundef %18)
  store i32 %19, ptr %8, align 4, !tbaa !23
  call void @llvm.lifetime.start.p0(i64 4, ptr %9) #6
  %20 = load ptr, ptr %4, align 8, !tbaa !3
  %21 = call i32 @lv_spangroup_get_indent(ptr noundef %20)
  store i32 %21, ptr %9, align 4, !tbaa !23
  %22 = load ptr, ptr %4, align 8, !tbaa !3
  %23 = icmp eq ptr %22, null
  br i1 %23, label %31, label %24

24:                                               ; preds = %3
  %25 = load ptr, ptr %5, align 8, !tbaa !3
  %26 = icmp eq ptr %25, null
  br i1 %26, label %31, label %27

27:                                               ; preds = %24
  %28 = load ptr, ptr %7, align 8, !tbaa !3
  %29 = call ptr @lv_ll_get_head(ptr noundef %28)
  %30 = icmp eq ptr %29, null
  br i1 %30, label %31, label %32

31:                                               ; preds = %27, %24, %3
  call void @llvm.memset.p0.i64(ptr align 4 %0, i8 0, i64 48, i1 false)
  store i32 1, ptr %10, align 4
  br label %76

32:                                               ; preds = %27
  call void @llvm.lifetime.start.p0(i64 8, ptr %11) #6
  store ptr null, ptr %11, align 8, !tbaa !3
  call void @llvm.lifetime.start.p0(i64 8, ptr %12) #6
  %33 = load ptr, ptr %7, align 8, !tbaa !3
  %34 = call ptr @lv_ll_get_head(ptr noundef %33)
  store ptr %34, ptr %12, align 8, !tbaa !3
  br label %35

35:                                               ; preds = %45, %32
  %36 = load ptr, ptr %12, align 8, !tbaa !3
  %37 = icmp ne ptr %36, null
  br i1 %37, label %38, label %49

38:                                               ; preds = %35
  %39 = load ptr, ptr %12, align 8, !tbaa !3
  %40 = load ptr, ptr %5, align 8, !tbaa !3
  %41 = icmp eq ptr %39, %40
  br i1 %41, label %42, label %43

42:                                               ; preds = %38
  br label %49

43:                                               ; preds = %38
  %44 = load ptr, ptr %12, align 8, !tbaa !3
  store ptr %44, ptr %11, align 8, !tbaa !3
  br label %45

45:                                               ; preds = %43
  %46 = load ptr, ptr %7, align 8, !tbaa !3
  %47 = load ptr, ptr %12, align 8, !tbaa !3
  %48 = call ptr @lv_ll_get_next(ptr noundef %46, ptr noundef %47)
  store ptr %48, ptr %12, align 8, !tbaa !3
  br label %35, !llvm.loop !62

49:                                               ; preds = %42, %35
  call void @llvm.lifetime.start.p0(i64 4, ptr %13) #6
  %50 = load ptr, ptr %4, align 8, !tbaa !3
  %51 = call i32 @lv_obj_get_style_border_width(ptr noundef %50, i32 noundef 0)
  store i32 %51, ptr %13, align 4, !tbaa !23
  %52 = load ptr, ptr %11, align 8, !tbaa !3
  %53 = load ptr, ptr %12, align 8, !tbaa !3
  %54 = load i32, ptr %8, align 4, !tbaa !23
  %55 = getelementptr inbounds nuw %struct.lv_area_t, ptr %14, i32 0, i32 0
  %56 = load ptr, ptr %4, align 8, !tbaa !3
  %57 = call i32 @lv_obj_get_style_pad_left(ptr noundef %56, i32 noundef 0)
  %58 = load i32, ptr %13, align 4, !tbaa !23
  %59 = add i32 %57, %58
  store i32 %59, ptr %55, align 4, !tbaa !63
  %60 = getelementptr inbounds nuw %struct.lv_area_t, ptr %14, i32 0, i32 1
  %61 = load ptr, ptr %4, align 8, !tbaa !3
  %62 = call i32 @lv_obj_get_style_pad_top(ptr noundef %61, i32 noundef 0)
  %63 = load i32, ptr %13, align 4, !tbaa !23
  %64 = add i32 %62, %63
  store i32 %64, ptr %60, align 4, !tbaa !64
  %65 = getelementptr inbounds nuw %struct.lv_area_t, ptr %14, i32 0, i32 2
  %66 = load ptr, ptr %4, align 8, !tbaa !3
  %67 = call i32 @lv_obj_get_style_pad_right(ptr noundef %66, i32 noundef 0)
  %68 = load i32, ptr %13, align 4, !tbaa !23
  %69 = add i32 %67, %68
  store i32 %69, ptr %65, align 4, !tbaa !65
  %70 = getelementptr inbounds nuw %struct.lv_area_t, ptr %14, i32 0, i32 3
  store i32 0, ptr %70, align 4, !tbaa !66
  %71 = load i32, ptr %9, align 4, !tbaa !23
  %72 = getelementptr inbounds nuw { i64, i64 }, ptr %14, i32 0, i32 0
  %73 = load i64, ptr %72, align 4
  %74 = getelementptr inbounds nuw { i64, i64 }, ptr %14, i32 0, i32 1
  %75 = load i64, ptr %74, align 4
  call void @make_span_coords(ptr dead_on_unwind writable sret(%struct._lv_span_coords_t) align 4 %0, ptr noundef %52, ptr noundef %53, i32 noundef %54, i64 %73, i64 %75, i32 noundef %71)
  store i32 1, ptr %10, align 4
  call void @llvm.lifetime.end.p0(i64 4, ptr %13) #6
  call void @llvm.lifetime.end.p0(i64 8, ptr %12) #6
  call void @llvm.lifetime.end.p0(i64 8, ptr %11) #6
  br label %76

76:                                               ; preds = %49, %31
  call void @llvm.lifetime.end.p0(i64 4, ptr %9) #6
  call void @llvm.lifetime.end.p0(i64 4, ptr %8) #6
  call void @llvm.lifetime.end.p0(i64 8, ptr %7) #6
  call void @llvm.lifetime.end.p0(i64 8, ptr %6) #6
  ret void
}