; Function Attrs: nounwind uwtable
define void @lv_spangroup_get_span_coords(ptr dead_on_unwind noalias writable sret(%struct._lv_span_coords_t) align 4 %0, ptr noundef %1, ptr noundef readnone %2) local_unnamed_addr #0 {
  %4 = getelementptr inbounds nuw i8, ptr %1, i64 80
  %5 = tail call i32 @lv_obj_get_content_width(ptr noundef %1) #8
  %6 = getelementptr inbounds nuw i8, ptr %1, i64 68
  %7 = load i32, ptr %6, align 4, !tbaa !3
  %8 = icmp eq ptr %1, null
  %9 = icmp eq ptr %2, null
  %or.cond = or i1 %8, %9
  br i1 %or.cond, label %13, label %10

10:                                               ; preds = %3
  %11 = tail call ptr @lv_ll_get_head(ptr noundef nonnull %4) #8
  %12 = icmp eq ptr %11, null
  br i1 %12, label %13, label %14

13:                                               ; preds = %10, %3
  tail call void @llvm.memset.p0.i64(ptr noundef nonnull align 4 dereferenceable(48) %0, i8 0, i64 48, i1 false)
  br label %28

14:                                               ; preds = %10
  %15 = tail call ptr @lv_ll_get_head(ptr noundef nonnull %4) #8
  %.not32 = icmp eq ptr %15, null
  %16 = icmp eq ptr %15, %2
  %or.cond2833 = or i1 %.not32, %16
  br i1 %or.cond2833, label %._crit_edge, label %.lr.ph

.lr.ph:                                           ; preds = %14, %.lr.ph
  %.02534 = phi ptr [ %17, %.lr.ph ], [ %15, %14 ]
  %17 = tail call ptr @lv_ll_get_next(ptr noundef nonnull %4, ptr noundef nonnull %.02534) #8
  %.not = icmp eq ptr %17, null
  %18 = icmp eq ptr %17, %2
  %or.cond28 = or i1 %.not, %18
  br i1 %or.cond28, label %._crit_edge, label %.lr.ph, !llvm.loop !81

._crit_edge:                                      ; preds = %.lr.ph, %14
  %.025.lcssa = phi ptr [ %15, %14 ], [ %17, %.lr.ph ]
  %.0.lcssa = phi ptr [ null, %14 ], [ %.02534, %.lr.ph ]
  %19 = tail call ptr @lv_obj_get_style_prop(ptr noundef nonnull %1, i32 noundef 0, i8 noundef zeroext 48) #8
  %20 = ptrtoint ptr %19 to i64
  %21 = tail call ptr @lv_obj_get_style_prop(ptr noundef nonnull %1, i32 noundef 0, i8 noundef zeroext 18) #8
  %22 = ptrtoint ptr %21 to i64
  %23 = add i64 %22, %20
  %24 = tail call ptr @lv_obj_get_style_prop(ptr noundef nonnull %1, i32 noundef 0, i8 noundef zeroext 16) #8
  %25 = ptrtoint ptr %24 to i64
  %26 = add i64 %25, %20
  %27 = tail call ptr @lv_obj_get_style_prop(ptr noundef nonnull %1, i32 noundef 0, i8 noundef zeroext 19) #8
  %.sroa.2.0.insert.ext = shl i64 %26, 32
  %.sroa.0.0.insert.ext = and i64 %23, 4294967295
  %.sroa.0.0.insert.insert = or disjoint i64 %.sroa.2.0.insert.ext, %.sroa.0.0.insert.ext
  tail call fastcc void @make_span_coords(ptr dead_on_unwind noalias writable align 4 %0, ptr noundef %.0.lcssa, ptr noundef %.025.lcssa, i32 noundef %5, i64 %.sroa.0.0.insert.insert, i32 noundef %7)
  br label %28

28:                                               ; preds = %._crit_edge, %13
  ret void
}